; Function Attrs: mustprogress uwtable
define void @_ZN4toml2v34impl15print_to_streamERSojNS0_11value_flagsEm(ptr noundef nonnull align 8 dereferenceable(8) %0, i32 noundef %1, i16 noundef zeroext %2, i64 noundef %3) local_unnamed_addr #0 {
  %5 = alloca [32 x i8], align 16
  %.not.i = icmp eq i32 %1, 0
  br i1 %.not.i, label %6, label %10

6:                                                ; preds = %4
  %umax.i = tail call i64 @llvm.umax.i64(i64 %3, i64 1)
  br label %7

7:                                                ; preds = %7, %6
  %.02335.i = phi i64 [ 0, %6 ], [ %9, %7 ]
  %8 = tail call noundef nonnull align 8 dereferenceable(8) ptr @_ZNSo3putEc(ptr noundef nonnull align 8 dereferenceable(8) %0, i8 noundef signext 48)
  %9 = add nuw i64 %.02335.i, 1
  %exitcond36.not.i = icmp eq i64 %9, %umax.i
  br i1 %exitcond36.not.i, label %_ZN12_GLOBAL__N_123print_integer_to_streamIjEEvRSoT_N4toml2v311value_flagsEm.exit, label %7, !llvm.loop !35

10:                                               ; preds = %4
  %11 = and i16 %2, 3
  switch i16 %11, label %default.unreachable [
    i16 3, label %14
    i16 1, label %12
    i16 2, label %13
    i16 0, label %15
  ]

12:                                               ; preds = %10
  br label %15

13:                                               ; preds = %10
  br label %15

14:                                               ; preds = %10
  br label %15

default.unreachable:                              ; preds = %10
  unreachable

15:                                               ; preds = %14, %13, %12, %10
  %16 = phi i1 [ true, %14 ], [ false, %13 ], [ false, %12 ], [ false, %10 ]
  %.024.i = phi i32 [ 16, %14 ], [ 8, %13 ], [ 2, %12 ], [ 10, %10 ]
  call void @llvm.lifetime.start.p0(i64 32, ptr nonnull %5) #50
  %17 = getelementptr inbounds nuw i8, ptr %5, i64 32
  %18 = call { ptr, i32 } @_ZSt12__to_chars_iIjENSt9enable_ifIXsr5__or_ISt5__or_IJSt7is_sameINSt9remove_cvIT_E4typeEaES2_IS6_sES2_IS6_iES2_IS6_lES2_IS6_xES2_IS6_nEEES1_IJS2_IS6_hES2_IS6_tES2_IS6_jES2_IS6_mES2_IS6_yES2_IS6_oEEES2_IcS6_EEE5valueESt15to_chars_resultE4typeEPcSP_S4_i(ptr noundef nonnull %5, ptr noundef nonnull %17, i32 noundef %1, i32 noundef %.024.i)
  %19 = extractvalue { ptr, i32 } %18, 0
  %20 = ptrtoint ptr %19 to i64
  %21 = ptrtoint ptr %5 to i64
  %22 = sub i64 %20, %21
  %23 = icmp ult i64 %22, %3
  br i1 %23, label %.lr.ph.i, label %._crit_edge.i

._crit_edge.i:                                    ; preds = %.lr.ph.i, %15
  %24 = icmp ne i64 %22, 0
  %or.cond.i = and i1 %16, %24
  br i1 %or.cond.i, label %.lr.ph34.i, label %.loopexit31.i

.lr.ph.i:                                         ; preds = %15, %.lr.ph.i
  %.02232.i = phi i64 [ %26, %.lr.ph.i ], [ %22, %15 ]
  %25 = call noundef nonnull align 8 dereferenceable(8) ptr @_ZNSo3putEc(ptr noundef nonnull align 8 dereferenceable(8) %0, i8 noundef signext 48)
  %26 = add nuw i64 %.02232.i, 1
  %27 = icmp ult i64 %26, %3
  br i1 %27, label %.lr.ph.i, label %._crit_edge.i, !llvm.loop !36

.lr.ph34.i:                                       ; preds = %._crit_edge.i, %33
  %.033.i = phi i64 [ %34, %33 ], [ 0, %._crit_edge.i ]
  %28 = getelementptr inbounds nuw [32 x i8], ptr %5, i64 0, i64 %.033.i
  %29 = load i8, ptr %28, align 1, !tbaa !15
  %30 = icmp sgt i8 %29, 96
  br i1 %30, label %31, label %33

31:                                               ; preds = %.lr.ph34.i
  %32 = add nsw i8 %29, -32
  store i8 %32, ptr %28, align 1, !tbaa !15
  br label %33

33:                                               ; preds = %31, %.lr.ph34.i
  %34 = add nuw i64 %.033.i, 1
  %exitcond.not.i = icmp eq i64 %34, %22
  br i1 %exitcond.not.i, label %.loopexit31.i, label %.lr.ph34.i, !llvm.loop !37

.loopexit31.i:                                    ; preds = %33, %._crit_edge.i
  %35 = call noundef nonnull align 8 dereferenceable(8) ptr @_ZNSo5writeEPKcl(ptr noundef nonnull align 8 dereferenceable(8) %0, ptr noundef nonnull %5, i64 noundef %22)
  call void @llvm.lifetime.end.p0(i64 32, ptr nonnull %5) #50
  br label %_ZN12_GLOBAL__N_123print_integer_to_streamIjEEvRSoT_N4toml2v311value_flagsEm.exit

_ZN12_GLOBAL__N_123print_integer_to_streamIjEEvRSoT_N4toml2v311value_flagsEm.exit: ; preds = %7, %.loopexit31.i
  ret void
}